target datalayout = "e-m:e-p270:32:32-p271:32:32-p272:64:64-i64:64-i128:128-f80:128-n8:16:32:64-S128"
target triple = "x86_64-pc-linux-gnu"

%struct._object = type { %union.anon, ptr }
%union.anon = type { i64 }
%struct._PyLegacyEventHandler = type { %struct._object, ptr, i32 }
%struct.anon = type { i32, i32 }

; Function Attrs: alwaysinline nounwind uwtable
define internal i32 @_Py_IsImmortal(ptr noundef %0) #5 {
  %2 = alloca ptr, align 8
  store ptr %0, ptr %2, align 8, !tbaa !25
  %3 = load ptr, ptr %2, align 8, !tbaa !25
  %4 = getelementptr inbounds nuw %struct._object, ptr %3, i32 0, i32 0
  %5 = getelementptr inbounds nuw %struct.anon, ptr %4, i32 0, i32 0
  %6 = load i32, ptr %5, align 8, !tbaa !24
  %7 = icmp slt i32 %6, 0
  %8 = zext i1 %7 to i32
  ret i32 %8
}

; Function Attrs: alwaysinline nounwind uwtable
define internal void @Py_DECREF(ptr noundef %0) #5 {
  %2 = alloca ptr, align 8
  store ptr %0, ptr %2, align 8, !tbaa !25
  %3 = load ptr, ptr %2, align 8, !tbaa !25
  %4 = call i32 @_Py_IsImmortal(ptr noundef %3)
  %5 = icmp ne i32 %4, 0
  br i1 %5, label %6, label %7

6:                                                ; preds = %1
  br label %16

7:                                                ; preds = %1
  %8 = load ptr, ptr %2, align 8, !tbaa !25
  %9 = getelementptr inbounds nuw %struct._object, ptr %8, i32 0, i32 0
  %10 = getelementptr inbounds nuw %struct.anon, ptr %9, i32 0, i32 0
  %11 = load i32, ptr %10, align 8, !tbaa !24
  %12 = add i32 %11, -1
  store i32 %12, ptr %10, align 8, !tbaa !24
  %13 = icmp eq i32 %12, 0
  br i1 %13, label %14, label %16

14:                                               ; preds = %7
  %15 = load ptr, ptr %2, align 8, !tbaa !25
  call void @_Py_Dealloc(ptr noundef %15)
  br label %16

16:                                               ; preds = %6, %14, %7
  ret void
}

; Function Attrs: inlinehint nounwind uwtable
define internal void @Py_XDECREF(ptr noundef %0) #2 {
  %2 = alloca ptr, align 8
  store ptr %0, ptr %2, align 8, !tbaa !25
  %3 = load ptr, ptr %2, align 8, !tbaa !25
  %4 = icmp ne ptr %3, null
  br i1 %4, label %5, label %7

5:                                                ; preds = %1
  %6 = load ptr, ptr %2, align 8, !tbaa !25
  call void @Py_DECREF(ptr noundef %6)
  br label %7

7:                                                ; preds = %5, %1
  ret void
}

; Function Attrs: nounwind uwtable
define internal i32 @set_callbacks(i32 noundef %0, ptr noundef %1, i32 noundef %2, i32 noundef %3, i32 noundef %4) #0 {
  %6 = alloca i32, align 4
  %7 = alloca i32, align 4
  %8 = alloca ptr, align 8
  %9 = alloca i32, align 4
  %10 = alloca i32, align 4
  %11 = alloca i32, align 4
  %12 = alloca ptr, align 8
  %13 = alloca i32, align 4
  store i32 %0, ptr %7, align 4, !tbaa !20
  store ptr %1, ptr %8, align 8, !tbaa !28
  store i32 %2, ptr %9, align 4, !tbaa !20
  store i32 %3, ptr %10, align 4, !tbaa !20
  store i32 %4, ptr %11, align 4, !tbaa !20
  call void @llvm.lifetime.start.p0(i64 8, ptr %12) #6
  %14 = call ptr @_PyObject_New(ptr noundef @_PyLegacyEventHandler_Type)
  store ptr %14, ptr %12, align 8, !tbaa !117
  %15 = load ptr, ptr %12, align 8, !tbaa !117
  %16 = icmp eq ptr %15, null
  br i1 %16, label %17, label %18

17:                                               ; preds = %5
  store i32 -1, ptr %6, align 4
  store i32 1, ptr %13, align 4
  br label %38

18:                                               ; preds = %5
  %19 = load ptr, ptr %8, align 8, !tbaa !28
  %20 = load ptr, ptr %12, align 8, !tbaa !117
  %21 = getelementptr inbounds nuw %struct._PyLegacyEventHandler, ptr %20, i32 0, i32 1
  store ptr %19, ptr %21, align 8, !tbaa !119
  %22 = load i32, ptr %9, align 4, !tbaa !20
  %23 = load ptr, ptr %12, align 8, !tbaa !117
  %24 = getelementptr inbounds nuw %struct._PyLegacyEventHandler, ptr %23, i32 0, i32 2
  store i32 %22, ptr %24, align 8, !tbaa !121
  %25 = load i32, ptr %7, align 4, !tbaa !20
  %26 = load i32, ptr %10, align 4, !tbaa !20
  %27 = load ptr, ptr %12, align 8, !tbaa !117
  %28 = call ptr @_PyMonitoring_RegisterCallback(i32 noundef %25, i32 noundef %26, ptr noundef %27)
  call void @Py_XDECREF(ptr noundef %28)
  %29 = load i32, ptr %11, align 4, !tbaa !20
  %30 = icmp sge i32 %29, 0
  br i1 %30, label %31, label %36

31:                                               ; preds = %18
  %32 = load i32, ptr %7, align 4, !tbaa !20
  %33 = load i32, ptr %11, align 4, !tbaa !20
  %34 = load ptr, ptr %12, align 8, !tbaa !117
  %35 = call ptr @_PyMonitoring_RegisterCallback(i32 noundef %32, i32 noundef %33, ptr noundef %34)
  call void @Py_XDECREF(ptr noundef %35)
  br label %36

36:                                               ; preds = %31, %18
  %37 = load ptr, ptr %12, align 8, !tbaa !117
  call void @Py_DECREF(ptr noundef %37)
  store i32 0, ptr %6, align 4
  store i32 1, ptr %13, align 4
  br label %38

38:                                               ; preds = %36, %17
  call void @llvm.lifetime.end.p0(i64 8, ptr %12) #6
  %39 = load i32, ptr %6, align 4
  ret i32 %39
}