; Function Attrs: nounwind uwtable
define internal fastcc range(i32 -1, 1) i32 @set_callbacks(i32 noundef range(i32 6, 8) %0, ptr noundef %1, i32 noundef range(i32 0, 8) %2, i32 noundef range(i32 0, 18) %3, i32 noundef range(i32 -1, 11) %4) unnamed_addr #0 {
  %6 = tail call ptr @_PyObject_New(ptr noundef nonnull @_PyLegacyEventHandler_Type) #4
  %7 = icmp eq ptr %6, null
  br i1 %7, label %Py_DECREF.exit, label %8

8:                                                ; preds = %5
  %9 = getelementptr inbounds nuw i8, ptr %6, i64 16
  store ptr %1, ptr %9, align 8, !tbaa !100
  %10 = getelementptr inbounds nuw i8, ptr %6, i64 24
  store i32 %2, ptr %10, align 8, !tbaa !102
  %11 = tail call ptr @_PyMonitoring_RegisterCallback(i32 noundef %0, i32 noundef %3, ptr noundef nonnull %6) #4
  %.not.i15 = icmp eq ptr %11, null
  br i1 %.not.i15, label %Py_XDECREF.exit, label %12

12:                                               ; preds = %8
  %13 = load i32, ptr %11, align 8, !tbaa !15
  %.not.i.i = icmp sgt i32 %13, -1
  br i1 %.not.i.i, label %14, label %Py_XDECREF.exit

14:                                               ; preds = %12
  %15 = add nsw i32 %13, -1
  store i32 %15, ptr %11, align 8, !tbaa !15
  %16 = icmp eq i32 %15, 0
  br i1 %16, label %17, label %Py_XDECREF.exit

17:                                               ; preds = %14
  tail call void @_Py_Dealloc(ptr noundef nonnull %11) #4
  br label %Py_XDECREF.exit

Py_XDECREF.exit:                                  ; preds = %8, %12, %14, %17
  %18 = icmp sgt i32 %4, -1
  br i1 %18, label %19, label %Py_XDECREF.exit18

19:                                               ; preds = %Py_XDECREF.exit
  %20 = tail call ptr @_PyMonitoring_RegisterCallback(i32 noundef %0, i32 noundef %4, ptr noundef nonnull %6) #4
  %.not.i16 = icmp eq ptr %20, null
  br i1 %.not.i16, label %Py_XDECREF.exit18, label %21

21:                                               ; preds = %19
  %22 = load i32, ptr %20, align 8, !tbaa !15
  %.not.i.i17 = icmp sgt i32 %22, -1
  br i1 %.not.i.i17, label %23, label %Py_XDECREF.exit18

23:                                               ; preds = %21
  %24 = add nsw i32 %22, -1
  store i32 %24, ptr %20, align 8, !tbaa !15
  %25 = icmp eq i32 %24, 0
  br i1 %25, label %26, label %Py_XDECREF.exit18

26:                                               ; preds = %23
  tail call void @_Py_Dealloc(ptr noundef nonnull %20) #4
  br label %Py_XDECREF.exit18

Py_XDECREF.exit18:                                ; preds = %26, %23, %21, %19, %Py_XDECREF.exit
  %27 = load i32, ptr %6, align 8, !tbaa !15
  %.not.i = icmp sgt i32 %27, -1
  br i1 %.not.i, label %28, label %Py_DECREF.exit

28:                                               ; preds = %Py_XDECREF.exit18
  %29 = add nsw i32 %27, -1
  store i32 %29, ptr %6, align 8, !tbaa !15
  %30 = icmp eq i32 %29, 0
  br i1 %30, label %31, label %Py_DECREF.exit

31:                                               ; preds = %28
  tail call void @_Py_Dealloc(ptr noundef nonnull %6) #4
  br label %Py_DECREF.exit

Py_DECREF.exit:                                   ; preds = %31, %28, %Py_XDECREF.exit18, %5
  %.0 = phi i32 [ -1, %5 ], [ 0, %Py_XDECREF.exit18 ], [ 0, %28 ], [ 0, %31 ]
  ret i32 %.0
}